target datalayout = "e-m:e-p270:32:32-p271:32:32-p272:64:64-i64:64-i128:128-f80:128-n8:16:32:64-S128"
target triple = "x86_64-pc-linux-gnu"

%struct.SESSION_DATA_STRUCTURE = type { i8, i8, i8, i32, i8 }
%struct._asn1_ctx_t = type { i32, i32, i8, ptr, ptr, ptr, ptr, ptr, %struct.anon.0, %struct.anon.3, %struct.anon.4, ptr }
%struct.anon.0 = type { i32, i8, i8, i8, ptr, ptr, i32, i32, ptr, ptr, ptr, %union.anon }
%union.anon = type { %struct.anon.1 }
%struct.anon.1 = type { ptr }
%struct.anon.3 = type { ptr, ptr, ptr }
%struct.anon.4 = type { i32, i8, ptr, i32, i32, ptr, ptr, ptr, %union.anon.5 }
%union.anon.5 = type { %struct.anon.6 }
%struct.anon.6 = type { ptr }

@ett_ros_return_result = internal global i32 0, align 4
@invokeid = internal global i32 0, align 4
@opcode = internal global i32 0, align 4
@top_tree = internal global ptr null, align 8
@.str.88 = private unnamed_addr constant [14 x i8] c"return result\00", align 1

; Function Attrs: null_pointer_is_valid sspstrong uwtable
define internal i32 @dissect_ros_OperationResult(i1 noundef zeroext %0, ptr noundef %1, i32 noundef %2, ptr noundef %3, ptr noundef %4, i32 noundef %5) #0 {
  %7 = alloca i8, align 1
  %8 = alloca ptr, align 8
  %9 = alloca i32, align 4
  %10 = alloca ptr, align 8
  %11 = alloca ptr, align 8
  %12 = alloca i32, align 4
  %13 = alloca ptr, align 8
  %14 = alloca ptr, align 8
  %15 = alloca ptr, align 8
  %16 = zext i1 %0 to i8
  store i8 %16, ptr %7, align 1
  store ptr %1, ptr %8, align 8
  store i32 %2, ptr %9, align 4
  store ptr %3, ptr %10, align 8
  store ptr %4, ptr %11, align 8
  store i32 %5, ptr %12, align 4
  call void @llvm.lifetime.start.p0(i64 8, ptr %13) #7
  call void @llvm.lifetime.start.p0(i64 8, ptr %14) #7
  call void @llvm.lifetime.start.p0(i64 8, ptr %15) #7
  %17 = load ptr, ptr %10, align 8
  %18 = getelementptr inbounds nuw %struct._asn1_ctx_t, ptr %17, i32 0, i32 7
  %19 = load ptr, ptr %18, align 8
  store ptr %19, ptr %15, align 8
  %20 = load ptr, ptr %11, align 8
  %21 = load ptr, ptr %8, align 8
  %22 = load i32, ptr %9, align 4
  %23 = load i32, ptr @ett_ros_return_result, align 4
  %24 = call ptr @proto_tree_add_subtree(ptr noundef %20, ptr noundef %21, i32 noundef %22, i32 noundef -1, i32 noundef %23, ptr noundef null, ptr noundef @.str.88)
  store ptr %24, ptr %14, align 8
  %25 = load ptr, ptr %8, align 8
  %26 = load ptr, ptr %10, align 8
  %27 = getelementptr inbounds nuw %struct._asn1_ctx_t, ptr %26, i32 0, i32 3
  %28 = load ptr, ptr %27, align 8
  %29 = load ptr, ptr %14, align 8
  %30 = load i32, ptr @invokeid, align 4
  %31 = call ptr @ros_match_call_response(ptr noundef %25, ptr noundef %28, ptr noundef %29, i32 noundef %30, i1 noundef zeroext false)
  %32 = load ptr, ptr %15, align 8
  %33 = icmp ne ptr %32, null
  br i1 %33, label %34, label %67

34:                                               ; preds = %6
  %35 = load ptr, ptr %15, align 8
  %36 = getelementptr inbounds nuw %struct.SESSION_DATA_STRUCTURE, ptr %35, i32 0, i32 2
  %37 = load i8, ptr %36, align 2
  %38 = zext i8 %37 to i32
  %39 = icmp ne i32 %38, 0
  br i1 %39, label %40, label %67

40:                                               ; preds = %34
  %41 = load ptr, ptr %10, align 8
  %42 = getelementptr inbounds nuw %struct._asn1_ctx_t, ptr %41, i32 0, i32 3
  %43 = load ptr, ptr %42, align 8
  %44 = load ptr, ptr %15, align 8
  %45 = getelementptr inbounds nuw %struct.SESSION_DATA_STRUCTURE, ptr %44, i32 0, i32 2
  %46 = load i8, ptr %45, align 2
  %47 = zext i8 %46 to i32
  %48 = call ptr @find_oid_by_pres_ctx_id(ptr noundef %43, i32 noundef %47)
  store ptr %48, ptr %13, align 8
  %49 = icmp ne ptr %48, null
  br i1 %49, label %50, label %67

50:                                               ; preds = %40
  %51 = load ptr, ptr %15, align 8
  %52 = getelementptr inbounds nuw %struct.SESSION_DATA_STRUCTURE, ptr %51, i32 0, i32 3
  store i32 587202560, ptr %52, align 4
  %53 = load i32, ptr @opcode, align 4
  %54 = load ptr, ptr %15, align 8
  %55 = getelementptr inbounds nuw %struct.SESSION_DATA_STRUCTURE, ptr %54, i32 0, i32 3
  %56 = load i32, ptr %55, align 4
  %57 = or i32 %56, %53
  store i32 %57, ptr %55, align 4
  %58 = load ptr, ptr %13, align 8
  %59 = load ptr, ptr %8, align 8
  %60 = load i32, ptr %9, align 4
  %61 = load ptr, ptr %10, align 8
  %62 = getelementptr inbounds nuw %struct._asn1_ctx_t, ptr %61, i32 0, i32 3
  %63 = load ptr, ptr %62, align 8
  %64 = load ptr, ptr @top_tree, align 8
  %65 = load ptr, ptr %15, align 8
  %66 = call i32 @call_ros_oid_callback(ptr noundef %58, ptr noundef %59, i32 noundef %60, ptr noundef %63, ptr noundef %64, ptr noundef %65)
  store i32 %66, ptr %9, align 4
  br label %67

67:                                               ; preds = %50, %40, %34, %6
  %68 = load i32, ptr %9, align 4
  call void @llvm.lifetime.end.p0(i64 8, ptr %15) #7
  call void @llvm.lifetime.end.p0(i64 8, ptr %14) #7
  call void @llvm.lifetime.end.p0(i64 8, ptr %13) #7
  ret i32 %68
}