; Function Attrs: null_pointer_is_valid sspstrong uwtable
define internal i32 @dissect_ros_OperationResult(i1 zeroext %0, ptr noundef %1, i32 noundef %2, ptr noundef readonly captures(none) %3, ptr noundef %4, i32 %5) #0 {
  %7 = getelementptr inbounds nuw i8, ptr %3, i64 48
  %8 = load ptr, ptr %7, align 8
  %9 = load i32, ptr @ett_ros_return_result, align 4
  %10 = tail call ptr @proto_tree_add_subtree(ptr noundef %4, ptr noundef %1, i32 noundef %2, i32 noundef -1, i32 noundef %9, ptr noundef null, ptr noundef nonnull @.str.88)
  %11 = getelementptr inbounds nuw i8, ptr %3, i64 16
  %12 = load ptr, ptr %11, align 8
  %13 = load i32, ptr @invokeid, align 4
  tail call fastcc void @ros_match_call_response(ptr noundef %1, ptr noundef %12, ptr noundef %10, i32 noundef %13, i1 noundef zeroext false)
  %.not = icmp eq ptr %8, null
  br i1 %.not, label %28, label %14

14:                                               ; preds = %6
  %15 = getelementptr inbounds nuw i8, ptr %8, i64 2
  %16 = load i8, ptr %15, align 2
  %.not21 = icmp eq i8 %16, 0
  br i1 %.not21, label %28, label %17

17:                                               ; preds = %14
  %18 = zext i8 %16 to i32
  %19 = load ptr, ptr %11, align 8
  %20 = tail call ptr @find_oid_by_pres_ctx_id(ptr noundef %19, i32 noundef %18)
  %.not22 = icmp eq ptr %20, null
  br i1 %.not22, label %28, label %21

21:                                               ; preds = %17
  %22 = getelementptr inbounds nuw i8, ptr %8, i64 4
  %23 = load i32, ptr @opcode, align 4
  %24 = or i32 %23, 587202560
  store i32 %24, ptr %22, align 4
  %25 = load ptr, ptr %11, align 8
  %26 = load ptr, ptr @top_tree, align 8
  %27 = tail call i32 @call_ros_oid_callback(ptr noundef nonnull %20, ptr noundef %1, i32 noundef %2, ptr noundef %25, ptr noundef %26, ptr noundef nonnull %8)
  br label %28

28:                                               ; preds = %21, %17, %14, %6
  %.0 = phi i32 [ %27, %21 ], [ %2, %17 ], [ %2, %14 ], [ %2, %6 ]
  ret i32 %.0
}